; Function Attrs: mustprogress nounwind uwtable
define internal fastcc void @_ZZNK4llvm20GIMatchTableExecutor17executeMatchTableIKN12_GLOBAL__N_126AArch64InstructionSelectorENS_6BitsetILj75EEEMS3_KFSt8optionalINS_11SmallVectorISt8functionIFvRNS_19MachineInstrBuilderEEELj4EEEERNS_14MachineOperandEEMS3_KFvSB_RKNS_12MachineInstrEiEEEbRT_RNS0_12MatcherStateERKNS0_10ExecInfoTyIT0_T1_T2_EERNS_16MachineIRBuilderEPKhRKNS_15TargetInstrInfoERNS_19MachineRegisterInfoERKNS_18TargetRegisterInfoERKNS_16RegisterBankInfoERKSU_PNS_15CodeGenCoverageEENKUlPSK_E_clES1J_(ptr nocapture noundef nonnull readonly align 8 dereferenceable(16) %0, ptr noundef %1) unnamed_addr #0 align 2 {
  %3 = load ptr, ptr %0, align 8
  %4 = getelementptr inbounds i8, ptr %3, i64 64
  %.sroa.0.0.copyload.i = load ptr, ptr %4, align 8
  %5 = icmp eq ptr %.sroa.0.0.copyload.i, %1
  br i1 %5, label %6, label %12

6:                                                ; preds = %2
  %7 = getelementptr inbounds nuw i8, ptr %1, i64 24
  %8 = load ptr, ptr %7, align 8
  %9 = getelementptr inbounds nuw i8, ptr %1, i64 8
  %10 = load ptr, ptr %9, align 8
  %11 = getelementptr inbounds i8, ptr %3, i64 56
  store ptr %8, ptr %11, align 8
  store ptr %10, ptr %4, align 8
  br label %12

12:                                               ; preds = %6, %2
  %13 = getelementptr inbounds nuw i8, ptr %0, i64 8
  %14 = load ptr, ptr %13, align 8
  %15 = load ptr, ptr %14, align 8
  %.not = icmp eq ptr %15, null
  br i1 %.not, label %20, label %16

16:                                               ; preds = %12
  %17 = load ptr, ptr %15, align 8
  %18 = getelementptr inbounds i8, ptr %17, i64 16
  %19 = load ptr, ptr %18, align 8
  tail call void %19(ptr noundef nonnull align 8 dereferenceable(72) %15, ptr noundef nonnull align 8 dereferenceable(70) %1) #24
  br label %20

20:                                               ; preds = %16, %12
  tail call void @_ZN4llvm12MachineInstr15eraseFromParentEv(ptr noundef nonnull align 8 dereferenceable(70) %1) #24
  ret void
}